; Function Attrs: mustprogress uwtable
define hidden noundef zeroext i1 @_ZNK11ast_manager8is_valueEP4expr(ptr noundef nonnull readonly align 8 captures(none) dereferenceable(976) %0, ptr noundef %1) local_unnamed_addr #7 align 2 {
  %3 = getelementptr inbounds nuw i8, ptr %1, i64 4
  %4 = load i32, ptr %3, align 4
  %5 = and i32 %4, 65535
  %6 = icmp eq i32 %5, 0
  br i1 %6, label %7, label %_ZNK11ast_manager10get_pluginEi.exit.thread

7:                                                ; preds = %2
  %8 = getelementptr inbounds nuw i8, ptr %1, i64 16
  %9 = load ptr, ptr %8, align 8, !tbaa !118
  %10 = getelementptr inbounds nuw i8, ptr %9, i64 24
  %11 = load ptr, ptr %10, align 8, !tbaa !111
  %12 = icmp eq ptr %11, null
  br i1 %12, label %_ZNK3app13get_family_idEv.exit, label %13

13:                                               ; preds = %7
  %14 = load i32, ptr %11, align 8, !tbaa !96
  br label %_ZNK3app13get_family_idEv.exit

_ZNK3app13get_family_idEv.exit:                   ; preds = %7, %13
  %15 = phi i32 [ %14, %13 ], [ -1, %7 ]
  %16 = getelementptr inbounds nuw i8, ptr %0, i64 704
  %17 = load ptr, ptr %16, align 8, !tbaa !33
  %18 = icmp eq ptr %17, null
  br i1 %18, label %_ZNK11ast_manager10get_pluginEi.exit.thread, label %_ZNK6vectorIP11decl_pluginLb0EjE3getEjRKS1_.exit.i

_ZNK6vectorIP11decl_pluginLb0EjE3getEjRKS1_.exit.i: ; preds = %_ZNK3app13get_family_idEv.exit
  %19 = getelementptr inbounds i8, ptr %17, i64 -4
  %20 = load i32, ptr %19, align 4, !tbaa !24
  %.not.i.i = icmp ult i32 %15, %20
  br i1 %.not.i.i, label %_ZNK11ast_manager10get_pluginEi.exit, label %_ZNK11ast_manager10get_pluginEi.exit.thread

_ZNK11ast_manager10get_pluginEi.exit:             ; preds = %_ZNK6vectorIP11decl_pluginLb0EjE3getEjRKS1_.exit.i
  %21 = zext i32 %15 to i64
  %22 = getelementptr inbounds nuw ptr, ptr %17, i64 %21
  %.then.val.i = load ptr, ptr %22, align 8, !tbaa !37
  %.not = icmp eq ptr %.then.val.i, null
  br i1 %.not, label %_ZNK11ast_manager10get_pluginEi.exit.thread, label %23

23:                                               ; preds = %_ZNK11ast_manager10get_pluginEi.exit
  %24 = load ptr, ptr %.then.val.i, align 8, !tbaa !39
  %25 = getelementptr inbounds nuw i8, ptr %24, i64 72
  %26 = load ptr, ptr %25, align 8
  %27 = tail call noundef zeroext i1 %26(ptr noundef nonnull align 8 dereferenceable(20) %.then.val.i, ptr noundef nonnull %1)
  br label %_ZNK11ast_manager10get_pluginEi.exit.thread

_ZNK11ast_manager10get_pluginEi.exit.thread:      ; preds = %_ZNK3app13get_family_idEv.exit, %_ZNK6vectorIP11decl_pluginLb0EjE3getEjRKS1_.exit.i, %2, %_ZNK11ast_manager10get_pluginEi.exit, %23
  %.0 = phi i1 [ false, %_ZNK11ast_manager10get_pluginEi.exit ], [ %27, %23 ], [ false, %2 ], [ false, %_ZNK6vectorIP11decl_pluginLb0EjE3getEjRKS1_.exit.i ], [ false, %_ZNK3app13get_family_idEv.exit ]
  ret i1 %.0
}